(dp1
S'output'
p2
S''
sS'layer'
p3
S'/home/john/python/web2py-read-only/applications/todoshell/controllers/test.py'
p4
sS'code'
p5
S'# coding: utf8\n# try something like\ndef index(): return dict(message="hello from todoshell application")\ndef task():\n    recores=db().select(db.task.ALL,orderby=db.task.title)\n    return dict(records=SQLTABLE(recores))\n\nresponse._vars=response._caller(task)\n'
p6
sS'traceback'
p7
S'Traceback (most recent call last):\n  File "/home/john/python/web2py-read-only/gluon/restricted.py", line 178, in restricted\n    exec ccode in environment\n  File "/home/john/python/web2py-read-only/applications/todoshell/controllers/test.py", line 8, in <module>\n  File "/home/john/python/web2py-read-only/gluon/globals.py", line 102, in <lambda>\n    self._caller = lambda f: f()\n  File "/home/john/python/web2py-read-only/applications/todoshell/controllers/test.py", line 5, in task\n    recores=db().select(db.task.ALL,orderby=db.task.title)\n  File "/home/john/python/web2py-read-only/gluon/sql.py", line 1362, in __getattr__\n    return dict.__getitem__(self,key)\nKeyError: \'title\'\n'
p8
s.