(dp1
S'output'
p2
S''
sS'layer'
p3
S'/home/john/python/web2py-read-only/applications/todoshell/views/test/tasks.html'
p4
sS'code'
p5
S'response.write(\'<!DOCTYPE html PUBLIC "-//W3C//DTD XHTML 1.0 Transitional//EN"\\n   "http://www.w3.org/TR/xhtml1/DTD/xhtml1-transitional.dtd">\\n<html xmlns="http://www.w3.org/1999/xhtml"\\n      xml:lang="\',escape=False)\nresponse.write(T.accepted_language or \'en\')\nresponse.write(\'">\\n  <head>\\n    <title>\',escape=False)\nresponse.write(response.title or \'response.title\')\nresponse.write(\'</title>\\n      <meta http-equiv="Content-Type" content="text/html; charset=UTF-8" />\\n      <meta name="copyright" content="\',escape=False)\nresponse.write(response.copyright or \'\')\nresponse.write(\'" />\\n      <meta name="keywords" content="\',escape=False)\nresponse.write(response.keywords or \'\')\nresponse.write(\'" />\\n      <meta name="description" content="\',escape=False)\nresponse.write(response.description or \'\')\nresponse.write(\'" />\\n      <meta name="robots" content="index,follow" />\\n      \',escape=False)\nimport os\nresponse.write(\'\\n<link href="\',escape=False)\nresponse.write(URL(r=request,c=\'static\',f=\'calendar.css\'))\nresponse.write(\'" rel="stylesheet" type="text/css" media="screen" charset="utf-8" />\\n<script src="\',escape=False)\nresponse.write(URL(r=request,c=\'static\',f=\'jquery.js\'))\nresponse.write(\'" type="text/javascript"></script>\\n<script src="\',escape=False)\nresponse.write(URL(r=request,c=\'static\',f=\'calendar.js\'))\nresponse.write(\'" type="text/javascript" charset="utf-8"></script>\\n<script type="text/javascript"><!--\\nfunction popup(url) {\\n  newwindow=window.open(url,\\\'name\\\',\\\'height=400,width=600\\\');\\n  if (window.focus) newwindow.focus();\\n  return false;\\n}\\nfunction collapse(id) { jQuery(\\\'#\\\'+id).slideToggle(); }\\nfunction fade(id,value) { if(value>0) jQuery(\\\'#\\\'+id).hide().fadeIn(\\\'slow\\\'); else jQuery(\\\'#\\\'+id).show().fadeOut(\\\'slow\\\'); }\\nfunction ajax(u,s,t) {\\n  var query="";\\n  for(i=0; i<s.length; i++) { \\n     if(i>0) query=query+"&";\\n     query=query+encodeURIComponent(s[i])+"="+encodeURIComponent(document.getElementById(s[i]).value);\\n  }\\n  jQuery.ajax({type: "POST", url: u, data: query, success: function(msg) { if(t==\\\':eval\\\') eval(msg); else document.getElementById(t).innerHTML=msg; } });  \\n}\\nString.prototype.reverse = function () { return this.split(\\\'\\\').reverse().join(\\\'\\\');};\\nfunction web2py_ajax_init() {\\n  jQuery(\\\'.hidden\\\').hide();\\n  jQuery(\\\'.error\\\').hide().slideDown(\\\'slow\\\');\\n  jQuery(\\\'.flash\\\').click(function() { jQuery(this).fadeOut(\\\'slow\\\'); return false; });\\n  jQuery(\\\'input.string\\\').attr(\\\'size\\\',50);\\n  jQuery(\\\'textarea.text\\\').attr(\\\'cols\\\',50).attr(\\\'rows\\\',10);\\n  jQuery(\\\'input.integer\\\').keyup(function(){this.value=this.value.reverse().replace(/[^0-9\\\\-]|\\\\-(?=.)/g,\\\'\\\').reverse();});\\n  jQuery(\\\'input.double\\\').keyup(function(){this.value=this.value.reverse().replace(/[^0-9\\\\-\\\\.]|[\\\\-](?=.)|[\\\\.](?=[0-9]*[\\\\.])/g,\\\'\\\').reverse();});\\n  jQuery(\\\'input.delete\\\').attr(\\\'onclick\\\',\\\'if(this.checked) if(!confirm("\',escape=False)\nresponse.write(T(\'Sure you want to delete this object?\'))\nresponse.write(\'")) this.checked=false;\\\');\\n  try {jQuery("input.date").focus( function() {Calendar.setup({\\n     inputField:this.id, ifFormat:"\',escape=False)\nresponse.write(T(\'%Y-%m-%d\'))\nresponse.write(\'", showsTime:false\\n  }); }); } catch(e) {};\\n  try { jQuery("input.datetime").focus( function() {Calendar.setup({\\n     inputField:this.id, ifFormat:"\',escape=False)\nresponse.write(T(\'%Y-%m-%d %H:%M:%S\'))\nresponse.write(\'", showsTime: true,timeFormat: "24"\\n  }); }); } catch(e) {};\\n  try { jQuery("input.time").clockpick({\\n      starthour:0, endhour:23, showminutes:true, military:true\\n  }); } catch(e) {};\\n};\\njQuery(document).ready(function(){\\n   jQuery(\\\'.flash\\\').hide();\\n   if(jQuery(\\\'.flash\\\').html()!=\\\'\\\') jQuery(\\\'.flash\\\').slideDown(\\\'slow\\\');\\n   web2py_ajax_init();});\\n\\nfunction web2py_trap_form(action,target) {\\n   jQuery(\\\'#\\\'+target+\\\' form\\\').each(function(i){\\n      var form=jQuery(this);\\n      jQuery(\\\'input[type="submit"]\\\',this).click(function(){\\n         jQuery(\\\'.flash\\\').hide().html(\\\'\\\');\\n         web2py_ajax_page(\\\'post\\\',action,form.serialize(),target);\\n         return false;\\n      });\\n   });\\n}\\nfunction web2py_ajax_page(method,action,data,target) {\\n  jQuery.ajax({\\\'type\\\':method,\\\'url\\\':action,\\\'data\\\':data,\\n    \\\'beforeSend\\\':function(xhr){\\n      xhr.setRequestHeader(\\\'web2py-component-location\\\',document.location);\\n      xhr.setRequestHeader(\\\'web2py-component-element\\\',target);},\\n    \\\'complete\\\':function(xhr,text){\\n      command=xhr.getResponseHeader(\\\'web2py-component-command\\\');\\n      if(command) eval(command);\\n      flash=xhr.getResponseHeader(\\\'web2py-component-flash\\\');\\n      if(flash) jQuery(\\\'.flash\\\').html(flash).slideDown();\\n      },\\n    \\\'success\\\': function(text) {\\n      jQuery(\\\'#\\\'+target).html(text);\\n      web2py_trap_form(action,target);\\n      web2py_ajax_init();\\n      }\\n    });\\n}\\nfunction web2py_component(action,target) {\\n    jQuery(document).ready(function(){ web2py_ajax_page(\\\'get\\\',action,null,target); });\\n}\\n//--></script>\\n\\n      <link rel="stylesheet" media="screen,projection" type="text/css" \\n            href="\',escape=False)\nresponse.write(URL(request.application,\'static\',\'base.css\'))\nresponse.write(\'" />\\n  </head>\\n  <body>\\n    <div class="wrapper">\\n      <table class="layout">\\n        <tr>\\n          <td colspan="3"  class="header">\\n            <h1>\\n            \',escape=False)\ntitle=response.title or \'response.title\'\nresponse.write(\'            \\n            \',escape=False)\nresponse.write(A(title, _href=URL(request.application,\'default\',\'index\')))\nresponse.write(\'\\n            </h1>\\n            \\n            <h3>\',escape=False)\nresponse.write(response.subtitle or \'response.subtitle\')\nresponse.write(\'</h3>\\n          </td>\\n        </tr>\\n        <tr>\\n          <td colspan="3" class="statusbar">\\n            \',escape=False)\nresponse.write(\'/\'.join([\'\',request.application,request.controller,request.function]+request.args))\nresponse.write(\'\\n          </td>\\n        </tr>\\n        <tr>\\n          <td class="width10em column1">\\n            \',escape=False)\nif response.menu_auth:\n    response.write(\'\\n            <h2>\',escape=False)\n    response.write(T(\'Authentication\'))\n    response.write(\'</h2>\\n            \',escape=False)\n    response.write(MENU(response.menu_auth))\n    response.write(\'\\n            \',escape=False)\n    pass\nresponse.write(\'\\n            \',escape=False)\nif response.menu:\n    response.write(\'\\n            <h2>\',escape=False)\n    response.write(T(\'Main Menu\'))\n    response.write(\'</h2>\\n            \',escape=False)\n    response.write(MENU(response.menu))\n    response.write(\'\\n            \',escape=False)\n    pass\nresponse.write(\'\\n            \',escape=False)\nif response.menu_edit:\n    response.write(\'\\n            <h2>\',escape=False)\n    response.write(T(\'Edit This App\'))\n    response.write(\'</h2>\\n            \',escape=False)\n    response.write(MENU(response.menu_edit))\n    response.write(\'\\n            \',escape=False)\n    pass\nresponse.write(\'\\n            <br />\\n          </td>\\n          <td class="expandable column2">\\n            <div class="flash">\',escape=False)\nresponse.write(response.flash or \'\')\nresponse.write(\'</div>\\n            \\n<h1>List all tasks</h1>\\n\',escape=False)\nresponse.write(form)\nresponse.write(\'\\n<table>\\n\',escape=False)\nfor task in tasks:\n    response.write(\'\\n<tr>\\n<td>\',escape=False)\n    response.write(A(task.subject,_href=URL(r=request,f=\'show?id=%s\'%task.id)))\n    response.write(\'</td>\\n<td>\',escape=False)\n    response.write(task.create_date)\n    response.write(\'</td>\\n</tr>\\n\',escape=False)\n    pass\nresponse.write(\'\\n</table>\\n\',escape=False)\nresponse.write(A(\'create new task\',_href=URL(r=request,f=\'new_task\')))\nresponse.write(\'\\n<!--\\n\',escape=False)\nresponse.write(BEAUTIFY(response._vars))\nresponse.write(\'\\n-->\\n\\n          </td>\\n          <!--\\n               <td class="width10em column3">\\n                 <h2>Right Column</h2>\\n               </td>\\n          //-->\\n        </tr>\\n        <tr>\\n          <td colspan="10" class="footer">\\n            <p>\\n            \',escape=False)\nresponse.write(T(\'Copyright\'))\nresponse.write(\' &copy; 2009 -\\n            \',escape=False)\nresponse.write(T(\'Powered by\'))\nresponse.write(\' <a href="http://www.web2py.com">web2py</a>\\n            </p>\\n          </td>\\n        </tr>\\n      </table>\\n    </div>\\n  </body>\\n</html>\\n\',escape=False)'
p6
sS'traceback'
p7
S'Traceback (most recent call last):\n  File "/home/john/python/web2py-read-only/gluon/restricted.py", line 178, in restricted\n    exec ccode in environment\n  File "/home/john/python/web2py-read-only/applications/todoshell/views/test/tasks.html", line 64, in <module>\nNameError: name \'tasks\' is not defined\n'
p8
s.