(dp1
S'output'
p2
S''
sS'layer'
p3
S'/home/john/python/web2py-read-only/applications/todoshell/controllers/default.py'
p4
sS'code'
p5
S'# coding: utf8\n\n#########################################################################\n## This is a samples controller\n## - index is the default action of any application\n## - user is required for authentication and authorization\n## - download is for downloading files uploaded in the db (does streaming)\n## - call exposes all registered services (none by default)\n#########################################################################  \n\ndef index():\n    """\n    example action using the internationalization operator T and flash\n    rendered by views/default/index.html or views/generic.html\n    """\n    """\n    response.flash = T(\'Welcome to web2py\')\n    return dict(message=T(\'Hello World\'))\n    """\n    return dict(name=value, othername=othervalue)\n\n\ndef user():\n    """\n    exposes:\n    http://..../[app]/default/user/login \n    http://..../[app]/default/user/logout\n    http://..../[app]/default/user/register\n    http://..../[app]/default/user/profile\n    http://..../[app]/default/user/retrieve_password\n    http://..../[app]/default/user/change_password\n    use @auth.requires_login()\n        @auth.requires_membership(\'group name\')\n        @auth.requires_permission(\'read\',\'table name\',record_id)\n    to decorate functions that need access control\n    """\n    return dict(form=auth())\n\n\ndef download():\n    """\n    allows downloading of uploaded files\n    http://..../[app]/default/download/[filename]\n    """\n    return response.download(request,db)\n\n\ndef call():\n    """\n    exposes services. for example:\n    http://..../[app]/default/call/jsonrpc\n    decorate with @services.jsonrpc the functions to expose\n    supports xml, json, xmlrpc, jsonrpc, amfrpc, rss, csv\n    """\n    session.forget()\n    return service()\n\nresponse._vars=response._caller(index)\n'
p6
sS'traceback'
p7
S'Traceback (most recent call last):\n  File "/home/john/python/web2py-read-only/gluon/restricted.py", line 178, in restricted\n    exec ccode in environment\n  File "/home/john/python/web2py-read-only/applications/todoshell/controllers/default.py", line 58, in <module>\n  File "/home/john/python/web2py-read-only/gluon/globals.py", line 102, in <lambda>\n    self._caller = lambda f: f()\n  File "/home/john/python/web2py-read-only/applications/todoshell/controllers/default.py", line 20, in index\n    return dict(name=value, othername=othervalue)\nNameError: global name \'value\' is not defined\n'
p8
s.